target datalayout = "e-m:e-p270:32:32-p271:32:32-p272:64:64-i64:64-i128:128-f80:128-n8:16:32:64-S128"
target triple = "x86_64-pc-linux-gnu"

%struct.AVChannelLayout = type { i32, i32, %union.anon, ptr }
%union.anon = type { i64 }
%struct.AACPCEInfo = type { %struct.AVChannelLayout, [4 x i32], [3 x [8 x i32]], [4 x [8 x i32]], [16 x i8], [16 x i8] }
%struct.AACEncContext = type { ptr, %struct.AACEncOptions, %struct.PutBitContext, ptr, ptr, ptr, ptr, ptr, %struct.AACPCEInfo, [16 x ptr], i32, i32, [8 x i8], %struct.LPCContext, i32, i32, ptr, ptr, ptr, %struct.FFPsyContext, ptr, ptr, i32, i32, float, i32, float, i32, i32, %struct.AudioFrameQueue, [96 x i32], [1024 x float], i16, [256 x [128 x %struct.AACQuantizeBandCostCacheEntry]], %struct.AACEncDSPContext, %struct.anon.0 }
%struct.AACEncOptions = type { i32, i32, i32, i32, i32, i32 }
%struct.PutBitContext = type { i32, i32, ptr, ptr, ptr }
%struct.LPCContext = type { i32, i32, i32, ptr, ptr, ptr, ptr, [2 x %struct.LLSModel] }
%struct.LLSModel = type { [36 x [36 x double]], [32 x [32 x double]], [32 x double], i32, ptr, ptr, [8 x i8] }
%struct.FFPsyContext = type { ptr, ptr, ptr, ptr, i32, i32, ptr, ptr, i32, %struct.anon, ptr }
%struct.anon = type { i32, i32, i32 }
%struct.AudioFrameQueue = type { ptr, i32, i32, ptr, i32, i32 }
%struct.AACQuantizeBandCostCacheEntry = type { float, float, i32, i8, i8, i16 }
%struct.AACEncDSPContext = type { ptr, ptr }
%struct.anon.0 = type { ptr }

; Function Attrs: nounwind uwtable
define void @ff_quantize_band_cost_cache_init(ptr noundef %0) #0 {
  %2 = alloca ptr, align 8
  store ptr %0, ptr %2, align 8, !tbaa !4
  %3 = load ptr, ptr %2, align 8, !tbaa !4
  %4 = getelementptr inbounds nuw %struct.AACEncContext, ptr %3, i32 0, i32 32
  %5 = load i16, ptr %4, align 16, !tbaa !9
  %6 = add i16 %5, 1
  store i16 %6, ptr %4, align 16, !tbaa !9
  %7 = load ptr, ptr %2, align 8, !tbaa !4
  %8 = getelementptr inbounds nuw %struct.AACEncContext, ptr %7, i32 0, i32 32
  %9 = load i16, ptr %8, align 16, !tbaa !9
  %10 = zext i16 %9 to i32
  %11 = icmp eq i32 %10, 0
  br i1 %11, label %12, label %18

12:                                               ; preds = %1
  %13 = load ptr, ptr %2, align 8, !tbaa !4
  %14 = getelementptr inbounds nuw %struct.AACEncContext, ptr %13, i32 0, i32 33
  %15 = getelementptr inbounds [256 x [128 x %struct.AACQuantizeBandCostCacheEntry]], ptr %14, i64 0, i64 0
  call void @llvm.memset.p0.i64(ptr align 4 %15, i8 0, i64 524288, i1 false)
  %16 = load ptr, ptr %2, align 8, !tbaa !4
  %17 = getelementptr inbounds nuw %struct.AACEncContext, ptr %16, i32 0, i32 32
  store i16 1, ptr %17, align 16, !tbaa !9
  br label %18

18:                                               ; preds = %12, %1
  ret void
}