; Function Attrs: mustprogress nofree norecurse nosync nounwind willreturn memory(argmem: readwrite) uwtable
define void @ff_quantize_band_cost_cache_init(ptr noundef captures(none) %0) local_unnamed_addr #0 {
  %2 = getelementptr inbounds nuw i8, ptr %0, i64 42960
  %3 = load i16, ptr %2, align 16, !tbaa !4
  %4 = add i16 %3, 1
  store i16 %4, ptr %2, align 16, !tbaa !4
  %5 = icmp eq i16 %4, 0
  br i1 %5, label %6, label %8

6:                                                ; preds = %1
  %7 = getelementptr inbounds nuw i8, ptr %0, i64 42964
  tail call void @llvm.memset.p0.i64(ptr noundef nonnull align 4 dereferenceable(524288) %7, i8 0, i64 524288, i1 false)
  store i16 1, ptr %2, align 16, !tbaa !4
  br label %8

8:                                                ; preds = %6, %1
  ret void
}